; ModuleID = '60/509.c'
source_filename = "60/509.c"
target datalayout = "e-m:e-p270:32:32-p271:32:32-p272:64:64-i64:64-f80:128-n8:16:32:64-S128"
target triple = "x86_64-pc-linux-gnu"

@.str = private unnamed_addr constant [3 x i8] c"%d\00", align 1
@.str.1 = private unnamed_addr constant [7 x i8] c"%d %d\0A\00", align 1
@.str.2 = private unnamed_addr constant [7 x i8] c"empty\0A\00", align 1

; Function Attrs: noinline nounwind uwtable
define dso_local i32 @main() #0 {
  %1 = alloca i32, align 4
  %2 = alloca i32, align 4
  %3 = alloca i32, align 4
  %4 = alloca i32, align 4
  %5 = alloca i32, align 4
  %6 = alloca [20000 x i32], align 16
  store i32 0, i32* %1, align 4
  store i32 0, i32* %5, align 4
  %7 = bitcast [20000 x i32]* %6 to i8*
  call void @llvm.memset.p0i8.i64(i8* align 16 %7, i8 0, i64 80000, i1 false)
  %8 = call i32 (i8*, ...) @__isoc99_scanf(i8* getelementptr inbounds ([3 x i8], [3 x i8]* @.str, i64 0, i64 0), i32* %2)
  %9 = load i32, i32* %2, align 4
  %10 = icmp sge i32 %9, 5
  br i1 %10, label %11, label %109

11:                                               ; preds = %0
  store i32 3, i32* %3, align 4
  br label %12

12:                                               ; preds = %105, %11
  %13 = load i32, i32* %3, align 4
  %14 = load i32, i32* %2, align 4
  %15 = sub nsw i32 %14, 1
  %16 = icmp slt i32 %13, %15
  br i1 %16, label %17, label %108

17:                                               ; preds = %12
  store i32 2, i32* %4, align 4
  br label %18

18:                                               ; preds = %36, %17
  %19 = load i32, i32* %4, align 4
  %20 = load i32, i32* %3, align 4
  %21 = icmp slt i32 %19, %20
  br i1 %21, label %22, label %39

22:                                               ; preds = %18
  %23 = load i32, i32* %3, align 4
  %24 = load i32, i32* %4, align 4
  %25 = srem i32 %23, %24
  %26 = icmp eq i32 %25, 0
  br i1 %26, label %27, label %31

27:                                               ; preds = %22
  %28 = load i32, i32* %4, align 4
  %29 = sext i32 %28 to i64
  %30 = getelementptr inbounds [20000 x i32], [20000 x i32]* %6, i64 0, i64 %29
  store i32 1, i32* %30, align 4
  br label %35

31:                                               ; preds = %22
  %32 = load i32, i32* %4, align 4
  %33 = sext i32 %32 to i64
  %34 = getelementptr inbounds [20000 x i32], [20000 x i32]* %6, i64 0, i64 %33
  store i32 0, i32* %34, align 4
  br label %35

35:                                               ; preds = %31, %27
  br label %36

36:                                               ; preds = %35
  %37 = load i32, i32* %4, align 4
  %38 = add nsw i32 %37, 1
  store i32 %38, i32* %4, align 4
  br label %18

39:                                               ; preds = %18
  store i32 2, i32* %4, align 4
  br label %40

40:                                               ; preds = %51, %39
  %41 = load i32, i32* %4, align 4
  %42 = load i32, i32* %3, align 4
  %43 = icmp slt i32 %41, %42
  br i1 %43, label %44, label %54

44:                                               ; preds = %40
  %45 = load i32, i32* %5, align 4
  %46 = load i32, i32* %4, align 4
  %47 = sext i32 %46 to i64
  %48 = getelementptr inbounds [20000 x i32], [20000 x i32]* %6, i64 0, i64 %47
  %49 = load i32, i32* %48, align 4
  %50 = add nsw i32 %45, %49
  store i32 %50, i32* %5, align 4
  br label %51

51:                                               ; preds = %44
  %52 = load i32, i32* %4, align 4
  %53 = add nsw i32 %52, 1
  store i32 %53, i32* %4, align 4
  br label %40

54:                                               ; preds = %40
  %55 = load i32, i32* %5, align 4
  %56 = icmp eq i32 %55, 0
  br i1 %56, label %57, label %81

57:                                               ; preds = %54
  store i32 2, i32* %4, align 4
  br label %58

58:                                               ; preds = %77, %57
  %59 = load i32, i32* %4, align 4
  %60 = load i32, i32* %3, align 4
  %61 = icmp slt i32 %59, %60
  br i1 %61, label %62, label %80

62:                                               ; preds = %58
  %63 = load i32, i32* %3, align 4
  %64 = add nsw i32 %63, 2
  %65 = load i32, i32* %4, align 4
  %66 = srem i32 %64, %65
  %67 = icmp eq i32 %66, 0
  br i1 %67, label %68, label %72

68:                                               ; preds = %62
  %69 = load i32, i32* %4, align 4
  %70 = sext i32 %69 to i64
  %71 = getelementptr inbounds [20000 x i32], [20000 x i32]* %6, i64 0, i64 %70
  store i32 1, i32* %71, align 4
  br label %76

72:                                               ; preds = %62
  %73 = load i32, i32* %4, align 4
  %74 = sext i32 %73 to i64
  %75 = getelementptr inbounds [20000 x i32], [20000 x i32]* %6, i64 0, i64 %74
  store i32 0, i32* %75, align 4
  br label %76

76:                                               ; preds = %72, %68
  br label %77

77:                                               ; preds = %76
  %78 = load i32, i32* %4, align 4
  %79 = add nsw i32 %78, 1
  store i32 %79, i32* %4, align 4
  br label %58

80:                                               ; preds = %58
  br label %81

81:                                               ; preds = %80, %54
  store i32 2, i32* %4, align 4
  br label %82

82:                                               ; preds = %93, %81
  %83 = load i32, i32* %4, align 4
  %84 = load i32, i32* %3, align 4
  %85 = icmp slt i32 %83, %84
  br i1 %85, label %86, label %96

86:                                               ; preds = %82
  %87 = load i32, i32* %5, align 4
  %88 = load i32, i32* %4, align 4
  %89 = sext i32 %88 to i64
  %90 = getelementptr inbounds [20000 x i32], [20000 x i32]* %6, i64 0, i64 %89
  %91 = load i32, i32* %90, align 4
  %92 = add nsw i32 %87, %91
  store i32 %92, i32* %5, align 4
  br label %93

93:                                               ; preds = %86
  %94 = load i32, i32* %4, align 4
  %95 = add nsw i32 %94, 1
  store i32 %95, i32* %4, align 4
  br label %82

96:                                               ; preds = %82
  %97 = load i32, i32* %5, align 4
  %98 = icmp eq i32 %97, 0
  br i1 %98, label %99, label %104

99:                                               ; preds = %96
  %100 = load i32, i32* %3, align 4
  %101 = load i32, i32* %3, align 4
  %102 = add nsw i32 %101, 2
  %103 = call i32 (i8*, ...) @printf(i8* getelementptr inbounds ([7 x i8], [7 x i8]* @.str.1, i64 0, i64 0), i32 %100, i32 %102)
  br label %104

104:                                              ; preds = %99, %96
  store i32 0, i32* %5, align 4
  br label %105

105:                                              ; preds = %104
  %106 = load i32, i32* %3, align 4
  %107 = add nsw i32 %106, 1
  store i32 %107, i32* %3, align 4
  br label %12

108:                                              ; preds = %12
  br label %111

109:                                              ; preds = %0
  %110 = call i32 (i8*, ...) @printf(i8* getelementptr inbounds ([7 x i8], [7 x i8]* @.str.2, i64 0, i64 0))
  br label %111

111:                                              ; preds = %109, %108
  ret i32 0
}

; Function Attrs: argmemonly nounwind willreturn
declare void @llvm.memset.p0i8.i64(i8* nocapture writeonly, i8, i64, i1 immarg) #1

declare dso_local i32 @__isoc99_scanf(i8*, ...) #2

declare dso_local i32 @printf(i8*, ...) #2


!llvm.module.flags = !{!0}
!llvm.ident = !{!1}

!0 = !{i32 1, !"wchar_size", i32 4}
!1 = !{!"clang version 10.0.0-4ubuntu1 "}
